target datalayout = "e-m:e-p270:32:32-p271:32:32-p272:64:64-i64:64-i128:128-f80:128-n8:16:32:64-S128"
target triple = "x86_64-pc-linux-gnu"

%struct.pg_compress_specification = type { i32, i32, i32, i32, i8, ptr }

@.str = private unnamed_addr constant [5 x i8] c"none\00", align 1
@.str.1 = private unnamed_addr constant [5 x i8] c"gzip\00", align 1
@.str.2 = private unnamed_addr constant [4 x i8] c"lz4\00", align 1
@.str.3 = private unnamed_addr constant [5 x i8] c"zstd\00", align 1
@.str.4 = private unnamed_addr constant [4 x i8] c"???\00", align 1
@.str.13 = private unnamed_addr constant [63 x i8] c"compression algorithm \22%s\22 does not accept a compression level\00", align 1
@.str.14 = private unnamed_addr constant [89 x i8] c"compression algorithm \22%s\22 expects a compression level between %d and %d (default at %d)\00", align 1
@.str.15 = private unnamed_addr constant [58 x i8] c"compression algorithm \22%s\22 does not accept a worker count\00", align 1
@.str.16 = private unnamed_addr constant [63 x i8] c"compression algorithm \22%s\22 does not support long-distance mode\00", align 1

; Function Attrs: nounwind uwtable
define ptr @get_compress_algorithm_name(i32 noundef %0) #0 {
  %2 = alloca ptr, align 8
  %3 = alloca i32, align 4
  store i32 %0, ptr %3, align 4
  %4 = load i32, ptr %3, align 4
  switch i32 %4, label %9 [
    i32 0, label %5
    i32 1, label %6
    i32 2, label %7
    i32 3, label %8
  ]

5:                                                ; preds = %1
  store ptr @.str, ptr %2, align 8
  br label %10

6:                                                ; preds = %1
  store ptr @.str.1, ptr %2, align 8
  br label %10

7:                                                ; preds = %1
  store ptr @.str.2, ptr %2, align 8
  br label %10

8:                                                ; preds = %1
  store ptr @.str.3, ptr %2, align 8
  br label %10

9:                                                ; preds = %1
  store ptr @.str.4, ptr %2, align 8
  br label %10

10:                                               ; preds = %9, %8, %7, %6, %5
  %11 = load ptr, ptr %2, align 8
  ret ptr %11
}

; Function Attrs: nounwind uwtable
define ptr @validate_compress_specification(ptr noundef %0) #0 {
  %2 = alloca ptr, align 8
  %3 = alloca ptr, align 8
  %4 = alloca i32, align 4
  %5 = alloca i32, align 4
  %6 = alloca i32, align 4
  %7 = alloca i32, align 4
  store ptr %0, ptr %3, align 8
  call void @llvm.lifetime.start.p0(i64 4, ptr %4) #7
  store i32 1, ptr %4, align 4
  call void @llvm.lifetime.start.p0(i64 4, ptr %5) #7
  store i32 1, ptr %5, align 4
  call void @llvm.lifetime.start.p0(i64 4, ptr %6) #7
  store i32 0, ptr %6, align 4
  %8 = load ptr, ptr %3, align 8
  %9 = getelementptr inbounds nuw %struct.pg_compress_specification, ptr %8, i32 0, i32 5
  %10 = load ptr, ptr %9, align 8
  %11 = icmp ne ptr %10, null
  br i1 %11, label %12, label %16

12:                                               ; preds = %1
  %13 = load ptr, ptr %3, align 8
  %14 = getelementptr inbounds nuw %struct.pg_compress_specification, ptr %13, i32 0, i32 5
  %15 = load ptr, ptr %14, align 8
  store ptr %15, ptr %2, align 8
  store i32 1, ptr %7, align 4
  br label %96

16:                                               ; preds = %1
  %17 = load ptr, ptr %3, align 8
  %18 = getelementptr inbounds nuw %struct.pg_compress_specification, ptr %17, i32 0, i32 0
  %19 = load i32, ptr %18, align 8
  switch i32 %19, label %34 [
    i32 1, label %20
    i32 2, label %21
    i32 3, label %34
    i32 0, label %22
  ]

20:                                               ; preds = %16
  store i32 9, ptr %5, align 4
  store i32 -1, ptr %6, align 4
  br label %34

21:                                               ; preds = %16
  store i32 12, ptr %5, align 4
  store i32 0, ptr %6, align 4
  br label %34

22:                                               ; preds = %16
  %23 = load ptr, ptr %3, align 8
  %24 = getelementptr inbounds nuw %struct.pg_compress_specification, ptr %23, i32 0, i32 2
  %25 = load i32, ptr %24, align 8
  %26 = icmp ne i32 %25, 0
  br i1 %26, label %27, label %33

27:                                               ; preds = %22
  %28 = load ptr, ptr %3, align 8
  %29 = getelementptr inbounds nuw %struct.pg_compress_specification, ptr %28, i32 0, i32 0
  %30 = load i32, ptr %29, align 8
  %31 = call ptr @get_compress_algorithm_name(i32 noundef %30)
  %32 = call ptr (ptr, ...) @psprintf(ptr noundef @.str.13, ptr noundef %31)
  store ptr %32, ptr %2, align 8
  store i32 1, ptr %7, align 4
  br label %96

33:                                               ; preds = %22
  br label %34

34:                                               ; preds = %16, %33, %16, %21, %20
  %35 = load ptr, ptr %3, align 8
  %36 = getelementptr inbounds nuw %struct.pg_compress_specification, ptr %35, i32 0, i32 2
  %37 = load i32, ptr %36, align 8
  %38 = load i32, ptr %4, align 4
  %39 = icmp slt i32 %37, %38
  br i1 %39, label %46, label %40

40:                                               ; preds = %34
  %41 = load ptr, ptr %3, align 8
  %42 = getelementptr inbounds nuw %struct.pg_compress_specification, ptr %41, i32 0, i32 2
  %43 = load i32, ptr %42, align 8
  %44 = load i32, ptr %5, align 4
  %45 = icmp sgt i32 %43, %44
  br i1 %45, label %46, label %61

46:                                               ; preds = %40, %34
  %47 = load ptr, ptr %3, align 8
  %48 = getelementptr inbounds nuw %struct.pg_compress_specification, ptr %47, i32 0, i32 2
  %49 = load i32, ptr %48, align 8
  %50 = load i32, ptr %6, align 4
  %51 = icmp ne i32 %49, %50
  br i1 %51, label %52, label %61

52:                                               ; preds = %46
  %53 = load ptr, ptr %3, align 8
  %54 = getelementptr inbounds nuw %struct.pg_compress_specification, ptr %53, i32 0, i32 0
  %55 = load i32, ptr %54, align 8
  %56 = call ptr @get_compress_algorithm_name(i32 noundef %55)
  %57 = load i32, ptr %4, align 4
  %58 = load i32, ptr %5, align 4
  %59 = load i32, ptr %6, align 4
  %60 = call ptr (ptr, ...) @psprintf(ptr noundef @.str.14, ptr noundef %56, i32 noundef %57, i32 noundef %58, i32 noundef %59)
  store ptr %60, ptr %2, align 8
  store i32 1, ptr %7, align 4
  br label %96

61:                                               ; preds = %46, %40
  %62 = load ptr, ptr %3, align 8
  %63 = getelementptr inbounds nuw %struct.pg_compress_specification, ptr %62, i32 0, i32 1
  %64 = load i32, ptr %63, align 4
  %65 = and i32 %64, 1
  %66 = icmp ne i32 %65, 0
  br i1 %66, label %67, label %78

67:                                               ; preds = %61
  %68 = load ptr, ptr %3, align 8
  %69 = getelementptr inbounds nuw %struct.pg_compress_specification, ptr %68, i32 0, i32 0
  %70 = load i32, ptr %69, align 8
  %71 = icmp ne i32 %70, 3
  br i1 %71, label %72, label %78

72:                                               ; preds = %67
  %73 = load ptr, ptr %3, align 8
  %74 = getelementptr inbounds nuw %struct.pg_compress_specification, ptr %73, i32 0, i32 0
  %75 = load i32, ptr %74, align 8
  %76 = call ptr @get_compress_algorithm_name(i32 noundef %75)
  %77 = call ptr (ptr, ...) @psprintf(ptr noundef @.str.15, ptr noundef %76)
  store ptr %77, ptr %2, align 8
  store i32 1, ptr %7, align 4
  br label %96

78:                                               ; preds = %67, %61
  %79 = load ptr, ptr %3, align 8
  %80 = getelementptr inbounds nuw %struct.pg_compress_specification, ptr %79, i32 0, i32 1
  %81 = load i32, ptr %80, align 4
  %82 = and i32 %81, 2
  %83 = icmp ne i32 %82, 0
  br i1 %83, label %84, label %95

84:                                               ; preds = %78
  %85 = load ptr, ptr %3, align 8
  %86 = getelementptr inbounds nuw %struct.pg_compress_specification, ptr %85, i32 0, i32 0
  %87 = load i32, ptr %86, align 8
  %88 = icmp ne i32 %87, 3
  br i1 %88, label %89, label %95

89:                                               ; preds = %84
  %90 = load ptr, ptr %3, align 8
  %91 = getelementptr inbounds nuw %struct.pg_compress_specification, ptr %90, i32 0, i32 0
  %92 = load i32, ptr %91, align 8
  %93 = call ptr @get_compress_algorithm_name(i32 noundef %92)
  %94 = call ptr (ptr, ...) @psprintf(ptr noundef @.str.16, ptr noundef %93)
  store ptr %94, ptr %2, align 8
  store i32 1, ptr %7, align 4
  br label %96

95:                                               ; preds = %84, %78
  store ptr null, ptr %2, align 8
  store i32 1, ptr %7, align 4
  br label %96

96:                                               ; preds = %95, %89, %72, %52, %27, %12
  call void @llvm.lifetime.end.p0(i64 4, ptr %6) #7
  call void @llvm.lifetime.end.p0(i64 4, ptr %5) #7
  call void @llvm.lifetime.end.p0(i64 4, ptr %4) #7
  %97 = load ptr, ptr %2, align 8
  ret ptr %97
}