; Function Attrs: nounwind uwtable
define ptr @validate_compress_specification(ptr noundef readonly captures(none) %0) local_unnamed_addr #3 {
  %2 = getelementptr inbounds nuw i8, ptr %0, i64 24
  %3 = load ptr, ptr %2, align 8
  %.not = icmp eq ptr %3, null
  br i1 %.not, label %4, label %.thread39

4:                                                ; preds = %1
  %5 = load i32, ptr %0, align 8
  switch i32 %5, label %13 [
    i32 1, label %6
    i32 2, label %7
    i32 0, label %8
  ]

6:                                                ; preds = %4
  br label %13

7:                                                ; preds = %4
  br label %13

8:                                                ; preds = %4
  %9 = getelementptr inbounds nuw i8, ptr %0, i64 8
  %10 = load i32, ptr %9, align 8
  %.not28 = icmp eq i32 %10, 0
  br i1 %.not28, label %13, label %11

11:                                               ; preds = %8
  %12 = tail call ptr (ptr, ...) @psprintf(ptr noundef nonnull @.str.13, ptr noundef nonnull @.str) #9
  br label %.thread39

13:                                               ; preds = %8, %7, %6, %4
  %.021 = phi i32 [ 1, %4 ], [ 1, %8 ], [ 12, %7 ], [ 9, %6 ]
  %.0 = phi i32 [ 0, %4 ], [ 0, %8 ], [ 0, %7 ], [ -1, %6 ]
  %14 = getelementptr inbounds nuw i8, ptr %0, i64 8
  %15 = load i32, ptr %14, align 8
  %16 = icmp sgt i32 %15, 0
  %17 = icmp sle i32 %15, %.021
  %or.cond.not45 = and i1 %16, %17
  %.not29 = icmp eq i32 %15, %.0
  %or.cond41 = or i1 %.not29, %or.cond.not45
  br i1 %or.cond41, label %22, label %18

18:                                               ; preds = %13
  %19 = icmp ult i32 %5, 4
  br i1 %19, label %switch.lookup, label %get_compress_algorithm_name.exit

switch.lookup:                                    ; preds = %18
  %20 = zext nneg i32 %5 to i64
  %switch.gep = getelementptr inbounds nuw [4 x ptr], ptr @switch.table.validate_compress_specification, i64 0, i64 %20
  %switch.load = load ptr, ptr %switch.gep, align 8
  br label %get_compress_algorithm_name.exit

get_compress_algorithm_name.exit:                 ; preds = %18, %switch.lookup
  %.0.i = phi ptr [ %switch.load, %switch.lookup ], [ @.str.4, %18 ]
  %21 = tail call ptr (ptr, ...) @psprintf(ptr noundef nonnull @.str.14, ptr noundef nonnull %.0.i, i32 noundef 1, i32 noundef %.021, i32 noundef %.0) #9
  br label %.thread39

22:                                               ; preds = %13
  %23 = getelementptr inbounds nuw i8, ptr %0, i64 4
  %24 = load i32, ptr %23, align 4
  %25 = and i32 %24, 1
  %.not30 = icmp eq i32 %25, 0
  br i1 %.not30, label %31, label %26

26:                                               ; preds = %22
  switch i32 %5, label %29 [
    i32 3, label %.thread39
    i32 0, label %get_compress_algorithm_name.exit35
    i32 1, label %27
    i32 2, label %28
  ]

27:                                               ; preds = %26
  br label %get_compress_algorithm_name.exit35

28:                                               ; preds = %26
  br label %get_compress_algorithm_name.exit35

29:                                               ; preds = %26
  br label %get_compress_algorithm_name.exit35

get_compress_algorithm_name.exit35:               ; preds = %26, %27, %28, %29
  %.0.i34 = phi ptr [ @.str.4, %29 ], [ @.str.2, %28 ], [ @.str.1, %27 ], [ @.str, %26 ]
  %30 = tail call ptr (ptr, ...) @psprintf(ptr noundef nonnull @.str.15, ptr noundef nonnull %.0.i34) #9
  br label %.thread39

31:                                               ; preds = %22
  %32 = and i32 %24, 2
  %.not32 = icmp eq i32 %32, 0
  %.not33 = icmp eq i32 %5, 3
  %or.cond42 = or i1 %.not33, %.not32
  br i1 %or.cond42, label %.thread39, label %33

33:                                               ; preds = %31
  %34 = icmp ult i32 %5, 3
  br i1 %34, label %switch.lookup46, label %get_compress_algorithm_name.exit37

switch.lookup46:                                  ; preds = %33
  %35 = zext nneg i32 %5 to i64
  %switch.gep47 = getelementptr inbounds nuw [3 x ptr], ptr @switch.table.validate_compress_specification.1, i64 0, i64 %35
  %switch.load48 = load ptr, ptr %switch.gep47, align 8
  br label %get_compress_algorithm_name.exit37

get_compress_algorithm_name.exit37:               ; preds = %33, %switch.lookup46
  %.0.i36 = phi ptr [ %switch.load48, %switch.lookup46 ], [ @.str.4, %33 ]
  %36 = tail call ptr (ptr, ...) @psprintf(ptr noundef nonnull @.str.16, ptr noundef nonnull %.0.i36) #9
  br label %.thread39

.thread39:                                        ; preds = %26, %31, %1, %get_compress_algorithm_name.exit37, %get_compress_algorithm_name.exit35, %get_compress_algorithm_name.exit, %11
  %.022 = phi ptr [ %21, %get_compress_algorithm_name.exit ], [ %30, %get_compress_algorithm_name.exit35 ], [ %36, %get_compress_algorithm_name.exit37 ], [ %12, %11 ], [ %3, %1 ], [ null, %31 ], [ null, %26 ]
  ret ptr %.022
}